target datalayout = "e-m:e-p270:32:32-p271:32:32-p272:64:64-i64:64-i128:128-f80:128-n8:16:32:64-S128"
target triple = "x86_64-unknown-linux-gnu"

%"class.QuantLib::Parameter" = type { %"class.boost::shared_ptr.14", %"class.QuantLib::Array", %"class.QuantLib::Constraint" }
%"class.boost::shared_ptr.14" = type { ptr, %"class.boost::detail::shared_count" }
%"class.boost::detail::shared_count" = type { ptr }
%"class.QuantLib::Array" = type { %"class.std::unique_ptr", i64 }
%"class.std::unique_ptr" = type { %"struct.std::__uniq_ptr_data" }
%"struct.std::__uniq_ptr_data" = type { %"class.std::__uniq_ptr_impl" }
%"class.std::__uniq_ptr_impl" = type { %"class.std::tuple" }
%"class.std::tuple" = type { %"struct.std::_Tuple_impl" }
%"struct.std::_Tuple_impl" = type { %"struct.std::_Head_base.16" }
%"struct.std::_Head_base.16" = type { ptr }
%"class.QuantLib::Constraint" = type { %"class.boost::shared_ptr.17" }
%"class.boost::shared_ptr.17" = type { ptr, %"class.boost::detail::shared_count" }
%"class.QuantLib::LmLinearExponentialVolatilityModel" = type { %"class.QuantLib::LmVolatilityModel", %"class.std::vector.9" }
%"class.QuantLib::LmVolatilityModel" = type { ptr, i64, %"class.std::vector" }
%"class.std::vector" = type { %"struct.std::_Vector_base" }
%"struct.std::_Vector_base" = type { %"struct.std::_Vector_base<QuantLib::Parameter, std::allocator<QuantLib::Parameter>>::_Vector_impl" }
%"struct.std::_Vector_base<QuantLib::Parameter, std::allocator<QuantLib::Parameter>>::_Vector_impl" = type { %"struct.std::_Vector_base<QuantLib::Parameter, std::allocator<QuantLib::Parameter>>::_Vector_impl_data" }
%"struct.std::_Vector_base<QuantLib::Parameter, std::allocator<QuantLib::Parameter>>::_Vector_impl_data" = type { ptr, ptr, ptr }
%"class.std::vector.9" = type { %"struct.std::_Vector_base.10" }
%"struct.std::_Vector_base.10" = type { %"struct.std::_Vector_base<double, std::allocator<double>>::_Vector_impl" }
%"struct.std::_Vector_base<double, std::allocator<double>>::_Vector_impl" = type { %"struct.std::_Vector_base<double, std::allocator<double>>::_Vector_impl_data" }
%"struct.std::_Vector_base<double, std::allocator<double>>::_Vector_impl_data" = type { ptr, ptr, ptr }

@.str.2 = private unnamed_addr constant [8 x i8] c"px != 0\00", align 1
@.str.3 = private unnamed_addr constant [102 x i8] c"generated/home/dtcxzyw/WorkSpace/SDK/vcpkg/installed/x64-linux/include/boost/smart_ptr/shared_ptr.hpp\00", align 1
@__PRETTY_FUNCTION__._ZNK5boost10shared_ptrIN8QuantLib9Parameter4ImplEEptEv = private unnamed_addr constant [147 x i8] c"typename boost::detail::sp_member_access<T>::type boost::shared_ptr<QuantLib::Parameter::Impl>::operator->() const [T = QuantLib::Parameter::Impl]\00", align 1

; Function Attrs: mustprogress uwtable
define linkonce_odr noundef ptr @_ZNK5boost10shared_ptrIN8QuantLib9Parameter4ImplEEptEv(ptr noundef nonnull align 8 dereferenceable(16) %this) #3 comdat align 2 {
entry:
  %this.addr = alloca ptr, align 8
  store ptr %this, ptr %this.addr, align 8, !tbaa !3
  %this1 = load ptr, ptr %this.addr, align 8
  %px = getelementptr inbounds nuw %"class.boost::shared_ptr.14", ptr %this1, i32 0, i32 0
  %0 = load ptr, ptr %px, align 8, !tbaa !46
  %cmp = icmp ne ptr %0, null
  %lnot = xor i1 %cmp, true
  %lnot2 = xor i1 %lnot, true
  %conv = zext i1 %lnot2 to i64
  %expval = call i64 @llvm.expect.i64(i64 %conv, i64 1)
  %tobool = icmp ne i64 %expval, 0
  br i1 %tobool, label %cond.true, label %cond.false

cond.true:                                        ; preds = %entry
  br label %cond.end

cond.false:                                       ; preds = %entry
  call void @_ZN5boost16assertion_failedEPKcS1_S1_l(ptr noundef @.str.2, ptr noundef @__PRETTY_FUNCTION__._ZNK5boost10shared_ptrIN8QuantLib9Parameter4ImplEEptEv, ptr noundef @.str.3, i64 noundef 784)
  br label %cond.end

cond.end:                                         ; preds = %cond.false, %cond.true
  %px3 = getelementptr inbounds nuw %"class.boost::shared_ptr.14", ptr %this1, i32 0, i32 0
  %1 = load ptr, ptr %px3, align 8, !tbaa !46
  ret ptr %1
}

; Function Attrs: mustprogress nounwind uwtable
define linkonce_odr noundef nonnull align 8 dereferenceable(8) ptr @_ZNKSt6vectorIdSaIdEEixEm(ptr noundef nonnull align 8 dereferenceable(24) %this, i64 noundef %__n) #4 comdat align 2 {
entry:
  %this.addr = alloca ptr, align 8
  %__n.addr = alloca i64, align 8
  store ptr %this, ptr %this.addr, align 8, !tbaa !3
  store i64 %__n, ptr %__n.addr, align 8, !tbaa !14
  %this1 = load ptr, ptr %this.addr, align 8
  %_M_impl = getelementptr inbounds nuw %"struct.std::_Vector_base.10", ptr %this1, i32 0, i32 0
  %_M_start = getelementptr inbounds nuw %"struct.std::_Vector_base<double, std::allocator<double>>::_Vector_impl_data", ptr %_M_impl, i32 0, i32 0
  %0 = load ptr, ptr %_M_start, align 8, !tbaa !13
  %1 = load i64, ptr %__n.addr, align 8, !tbaa !14
  %add.ptr = getelementptr inbounds nuw double, ptr %0, i64 %1
  ret ptr %add.ptr
}

; Function Attrs: mustprogress uwtable
define linkonce_odr noundef double @_ZNK8QuantLib9ParameterclEd(ptr noundef nonnull align 8 dereferenceable(48) %this, double noundef %t) #3 comdat align 2 {
entry:
  %this.addr = alloca ptr, align 8
  %t.addr = alloca double, align 8
  store ptr %this, ptr %this.addr, align 8, !tbaa !3
  store double %t, ptr %t.addr, align 8, !tbaa !7
  %this1 = load ptr, ptr %this.addr, align 8
  %impl_ = getelementptr inbounds nuw %"class.QuantLib::Parameter", ptr %this1, i32 0, i32 0
  %call = call noundef ptr @_ZNK5boost10shared_ptrIN8QuantLib9Parameter4ImplEEptEv(ptr noundef nonnull align 8 dereferenceable(16) %impl_)
  %params_ = getelementptr inbounds nuw %"class.QuantLib::Parameter", ptr %this1, i32 0, i32 1
  %0 = load double, ptr %t.addr, align 8, !tbaa !7
  %vtable = load ptr, ptr %call, align 8, !tbaa !9
  %vfn = getelementptr inbounds ptr, ptr %vtable, i64 2
  %1 = load ptr, ptr %vfn, align 8
  %call2 = call noundef double %1(ptr noundef nonnull align 8 dereferenceable(8) %call, ptr noundef nonnull align 8 dereferenceable(16) %params_, double noundef %0)
  ret double %call2
}

; Function Attrs: mustprogress nounwind uwtable
define linkonce_odr noundef nonnull align 8 dereferenceable(48) ptr @_ZNKSt6vectorIN8QuantLib9ParameterESaIS1_EEixEm(ptr noundef nonnull align 8 dereferenceable(24) %this, i64 noundef %__n) #4 comdat align 2 {
entry:
  %this.addr = alloca ptr, align 8
  %__n.addr = alloca i64, align 8
  store ptr %this, ptr %this.addr, align 8, !tbaa !3
  store i64 %__n, ptr %__n.addr, align 8, !tbaa !14
  %this1 = load ptr, ptr %this.addr, align 8
  %_M_impl = getelementptr inbounds nuw %"struct.std::_Vector_base", ptr %this1, i32 0, i32 0
  %_M_start = getelementptr inbounds nuw %"struct.std::_Vector_base<QuantLib::Parameter, std::allocator<QuantLib::Parameter>>::_Vector_impl_data", ptr %_M_impl, i32 0, i32 0
  %0 = load ptr, ptr %_M_start, align 8, !tbaa !16
  %1 = load i64, ptr %__n.addr, align 8, !tbaa !14
  %add.ptr = getelementptr inbounds nuw %"class.QuantLib::Parameter", ptr %0, i64 %1
  ret ptr %add.ptr
}

; Function Attrs: mustprogress uwtable
define noundef double @_ZNK8QuantLib34LmLinearExponentialVolatilityModel10volatilityEmdRKNS_5ArrayE(ptr noundef nonnull align 8 dereferenceable(64) %this, i64 noundef %i, double noundef %t, ptr noundef nonnull align 8 dereferenceable(16) %0) unnamed_addr #3 align 2 {
entry:
  %this.addr = alloca ptr, align 8
  %i.addr = alloca i64, align 8
  %t.addr = alloca double, align 8
  %.addr = alloca ptr, align 8
  %a = alloca double, align 8
  %b = alloca double, align 8
  %c = alloca double, align 8
  %d = alloca double, align 8
  %T = alloca double, align 8
  store ptr %this, ptr %this.addr, align 8, !tbaa !3
  store i64 %i, ptr %i.addr, align 8, !tbaa !14
  store double %t, ptr %t.addr, align 8, !tbaa !7
  store ptr %0, ptr %.addr, align 8, !tbaa !3
  %this1 = load ptr, ptr %this.addr, align 8
  call void @llvm.lifetime.start.p0(i64 8, ptr %a) #16
  %arguments_ = getelementptr inbounds nuw %"class.QuantLib::LmVolatilityModel", ptr %this1, i32 0, i32 2
  %call = call noundef nonnull align 8 dereferenceable(48) ptr @_ZNKSt6vectorIN8QuantLib9ParameterESaIS1_EEixEm(ptr noundef nonnull align 8 dereferenceable(24) %arguments_, i64 noundef 0) #16
  %call2 = call noundef double @_ZNK8QuantLib9ParameterclEd(ptr noundef nonnull align 8 dereferenceable(48) %call, double noundef 0.000000e+00)
  store double %call2, ptr %a, align 8, !tbaa !7
  call void @llvm.lifetime.start.p0(i64 8, ptr %b) #16
  %arguments_3 = getelementptr inbounds nuw %"class.QuantLib::LmVolatilityModel", ptr %this1, i32 0, i32 2
  %call4 = call noundef nonnull align 8 dereferenceable(48) ptr @_ZNKSt6vectorIN8QuantLib9ParameterESaIS1_EEixEm(ptr noundef nonnull align 8 dereferenceable(24) %arguments_3, i64 noundef 1) #16
  %call5 = call noundef double @_ZNK8QuantLib9ParameterclEd(ptr noundef nonnull align 8 dereferenceable(48) %call4, double noundef 0.000000e+00)
  store double %call5, ptr %b, align 8, !tbaa !7
  call void @llvm.lifetime.start.p0(i64 8, ptr %c) #16
  %arguments_6 = getelementptr inbounds nuw %"class.QuantLib::LmVolatilityModel", ptr %this1, i32 0, i32 2
  %call7 = call noundef nonnull align 8 dereferenceable(48) ptr @_ZNKSt6vectorIN8QuantLib9ParameterESaIS1_EEixEm(ptr noundef nonnull align 8 dereferenceable(24) %arguments_6, i64 noundef 2) #16
  %call8 = call noundef double @_ZNK8QuantLib9ParameterclEd(ptr noundef nonnull align 8 dereferenceable(48) %call7, double noundef 0.000000e+00)
  store double %call8, ptr %c, align 8, !tbaa !7
  call void @llvm.lifetime.start.p0(i64 8, ptr %d) #16
  %arguments_9 = getelementptr inbounds nuw %"class.QuantLib::LmVolatilityModel", ptr %this1, i32 0, i32 2
  %call10 = call noundef nonnull align 8 dereferenceable(48) ptr @_ZNKSt6vectorIN8QuantLib9ParameterESaIS1_EEixEm(ptr noundef nonnull align 8 dereferenceable(24) %arguments_9, i64 noundef 3) #16
  %call11 = call noundef double @_ZNK8QuantLib9ParameterclEd(ptr noundef nonnull align 8 dereferenceable(48) %call10, double noundef 0.000000e+00)
  store double %call11, ptr %d, align 8, !tbaa !7
  call void @llvm.lifetime.start.p0(i64 8, ptr %T) #16
  %fixingTimes_ = getelementptr inbounds nuw %"class.QuantLib::LmLinearExponentialVolatilityModel", ptr %this1, i32 0, i32 1
  %1 = load i64, ptr %i.addr, align 8, !tbaa !14
  %call12 = call noundef nonnull align 8 dereferenceable(8) ptr @_ZNKSt6vectorIdSaIdEEixEm(ptr noundef nonnull align 8 dereferenceable(24) %fixingTimes_, i64 noundef %1) #16
  %2 = load double, ptr %call12, align 8, !tbaa !7
  store double %2, ptr %T, align 8, !tbaa !7
  %3 = load double, ptr %T, align 8, !tbaa !7
  %4 = load double, ptr %t.addr, align 8, !tbaa !7
  %cmp = fcmp ogt double %3, %4
  br i1 %cmp, label %cond.true, label %cond.false

cond.true:                                        ; preds = %entry
  %5 = load double, ptr %a, align 8, !tbaa !7
  %6 = load double, ptr %T, align 8, !tbaa !7
  %7 = load double, ptr %t.addr, align 8, !tbaa !7
  %sub = fsub double %6, %7
  %8 = load double, ptr %d, align 8, !tbaa !7
  %9 = call double @llvm.fmuladd.f64(double %5, double %sub, double %8)
  %10 = load double, ptr %b, align 8, !tbaa !7
  %fneg = fneg double %10
  %11 = load double, ptr %T, align 8, !tbaa !7
  %12 = load double, ptr %t.addr, align 8, !tbaa !7
  %sub13 = fsub double %11, %12
  %mul = fmul double %fneg, %sub13
  %call14 = call double @exp(double noundef %mul) #16, !tbaa !23
  %13 = load double, ptr %c, align 8, !tbaa !7
  %14 = call double @llvm.fmuladd.f64(double %9, double %call14, double %13)
  br label %cond.end

cond.false:                                       ; preds = %entry
  br label %cond.end

cond.end:                                         ; preds = %cond.false, %cond.true
  %cond = phi double [ %14, %cond.true ], [ 0.000000e+00, %cond.false ]
  call void @llvm.lifetime.end.p0(i64 8, ptr %T) #16
  call void @llvm.lifetime.end.p0(i64 8, ptr %d) #16
  call void @llvm.lifetime.end.p0(i64 8, ptr %c) #16
  call void @llvm.lifetime.end.p0(i64 8, ptr %b) #16
  call void @llvm.lifetime.end.p0(i64 8, ptr %a) #16
  ret double %cond
}