; Function Attrs: mustprogress uwtable
define noundef double @_ZNK8QuantLib34LmLinearExponentialVolatilityModel10volatilityEmdRKNS_5ArrayE(ptr nocapture noundef nonnull readonly align 8 dereferenceable(64) %this, i64 noundef %i, double noundef %t, ptr nocapture nonnull readnone align 8 %0) unnamed_addr #3 align 2 {
entry:
  %arguments_ = getelementptr inbounds nuw i8, ptr %this, i64 16
  %1 = load ptr, ptr %arguments_, align 8, !tbaa !14
  %2 = load ptr, ptr %1, align 8, !tbaa !16
  %cmp.not.i.i = icmp eq ptr %2, null
  br i1 %cmp.not.i.i, label %cond.false.i.i, label %_ZNK8QuantLib9ParameterclEd.exit, !prof !11

cond.false.i.i:                                   ; preds = %entry
  tail call void @_ZN5boost16assertion_failedEPKcS1_S1_l(ptr noundef nonnull @.str.2, ptr noundef nonnull @__PRETTY_FUNCTION__._ZNK5boost10shared_ptrIN8QuantLib9Parameter4ImplEEptEv, ptr noundef nonnull @.str.3, i64 noundef 784)
  %.pre.i.i = load ptr, ptr %1, align 8, !tbaa !16
  br label %_ZNK8QuantLib9ParameterclEd.exit

_ZNK8QuantLib9ParameterclEd.exit:                 ; preds = %entry, %cond.false.i.i
  %3 = phi ptr [ %2, %entry ], [ %.pre.i.i, %cond.false.i.i ]
  %params_.i = getelementptr inbounds nuw i8, ptr %1, i64 16
  %vtable.i = load ptr, ptr %3, align 8, !tbaa !9
  %vfn.i = getelementptr inbounds i8, ptr %vtable.i, i64 16
  %4 = load ptr, ptr %vfn.i, align 8
  %call2.i = tail call noundef double %4(ptr noundef nonnull align 8 dereferenceable(8) %3, ptr noundef nonnull align 8 dereferenceable(16) %params_.i, double noundef 0.000000e+00)
  %5 = load ptr, ptr %arguments_, align 8, !tbaa !14
  %add.ptr.i = getelementptr inbounds nuw i8, ptr %5, i64 48
  %6 = load ptr, ptr %add.ptr.i, align 8, !tbaa !16
  %cmp.not.i.i5 = icmp eq ptr %6, null
  br i1 %cmp.not.i.i5, label %cond.false.i.i10, label %_ZNK8QuantLib9ParameterclEd.exit12, !prof !11

cond.false.i.i10:                                 ; preds = %_ZNK8QuantLib9ParameterclEd.exit
  tail call void @_ZN5boost16assertion_failedEPKcS1_S1_l(ptr noundef nonnull @.str.2, ptr noundef nonnull @__PRETTY_FUNCTION__._ZNK5boost10shared_ptrIN8QuantLib9Parameter4ImplEEptEv, ptr noundef nonnull @.str.3, i64 noundef 784)
  %.pre.i.i11 = load ptr, ptr %add.ptr.i, align 8, !tbaa !16
  br label %_ZNK8QuantLib9ParameterclEd.exit12

_ZNK8QuantLib9ParameterclEd.exit12:               ; preds = %_ZNK8QuantLib9ParameterclEd.exit, %cond.false.i.i10
  %7 = phi ptr [ %6, %_ZNK8QuantLib9ParameterclEd.exit ], [ %.pre.i.i11, %cond.false.i.i10 ]
  %params_.i6 = getelementptr inbounds nuw i8, ptr %5, i64 64
  %vtable.i7 = load ptr, ptr %7, align 8, !tbaa !9
  %vfn.i8 = getelementptr inbounds i8, ptr %vtable.i7, i64 16
  %8 = load ptr, ptr %vfn.i8, align 8
  %call2.i9 = tail call noundef double %8(ptr noundef nonnull align 8 dereferenceable(8) %7, ptr noundef nonnull align 8 dereferenceable(16) %params_.i6, double noundef 0.000000e+00)
  %9 = load ptr, ptr %arguments_, align 8, !tbaa !14
  %add.ptr.i13 = getelementptr inbounds nuw i8, ptr %9, i64 96
  %10 = load ptr, ptr %add.ptr.i13, align 8, !tbaa !16
  %cmp.not.i.i14 = icmp eq ptr %10, null
  br i1 %cmp.not.i.i14, label %cond.false.i.i19, label %_ZNK8QuantLib9ParameterclEd.exit21, !prof !11

cond.false.i.i19:                                 ; preds = %_ZNK8QuantLib9ParameterclEd.exit12
  tail call void @_ZN5boost16assertion_failedEPKcS1_S1_l(ptr noundef nonnull @.str.2, ptr noundef nonnull @__PRETTY_FUNCTION__._ZNK5boost10shared_ptrIN8QuantLib9Parameter4ImplEEptEv, ptr noundef nonnull @.str.3, i64 noundef 784)
  %.pre.i.i20 = load ptr, ptr %add.ptr.i13, align 8, !tbaa !16
  br label %_ZNK8QuantLib9ParameterclEd.exit21

_ZNK8QuantLib9ParameterclEd.exit21:               ; preds = %_ZNK8QuantLib9ParameterclEd.exit12, %cond.false.i.i19
  %11 = phi ptr [ %10, %_ZNK8QuantLib9ParameterclEd.exit12 ], [ %.pre.i.i20, %cond.false.i.i19 ]
  %params_.i15 = getelementptr inbounds nuw i8, ptr %9, i64 112
  %vtable.i16 = load ptr, ptr %11, align 8, !tbaa !9
  %vfn.i17 = getelementptr inbounds i8, ptr %vtable.i16, i64 16
  %12 = load ptr, ptr %vfn.i17, align 8
  %call2.i18 = tail call noundef double %12(ptr noundef nonnull align 8 dereferenceable(8) %11, ptr noundef nonnull align 8 dereferenceable(16) %params_.i15, double noundef 0.000000e+00)
  %13 = load ptr, ptr %arguments_, align 8, !tbaa !14
  %add.ptr.i22 = getelementptr inbounds nuw i8, ptr %13, i64 144
  %14 = load ptr, ptr %add.ptr.i22, align 8, !tbaa !16
  %cmp.not.i.i23 = icmp eq ptr %14, null
  br i1 %cmp.not.i.i23, label %cond.false.i.i28, label %_ZNK8QuantLib9ParameterclEd.exit30, !prof !11

cond.false.i.i28:                                 ; preds = %_ZNK8QuantLib9ParameterclEd.exit21
  tail call void @_ZN5boost16assertion_failedEPKcS1_S1_l(ptr noundef nonnull @.str.2, ptr noundef nonnull @__PRETTY_FUNCTION__._ZNK5boost10shared_ptrIN8QuantLib9Parameter4ImplEEptEv, ptr noundef nonnull @.str.3, i64 noundef 784)
  %.pre.i.i29 = load ptr, ptr %add.ptr.i22, align 8, !tbaa !16
  br label %_ZNK8QuantLib9ParameterclEd.exit30

_ZNK8QuantLib9ParameterclEd.exit30:               ; preds = %_ZNK8QuantLib9ParameterclEd.exit21, %cond.false.i.i28
  %15 = phi ptr [ %14, %_ZNK8QuantLib9ParameterclEd.exit21 ], [ %.pre.i.i29, %cond.false.i.i28 ]
  %params_.i24 = getelementptr inbounds nuw i8, ptr %13, i64 160
  %vtable.i25 = load ptr, ptr %15, align 8, !tbaa !9
  %vfn.i26 = getelementptr inbounds i8, ptr %vtable.i25, i64 16
  %16 = load ptr, ptr %vfn.i26, align 8
  %call2.i27 = tail call noundef double %16(ptr noundef nonnull align 8 dereferenceable(8) %15, ptr noundef nonnull align 8 dereferenceable(16) %params_.i24, double noundef 0.000000e+00)
  %fixingTimes_ = getelementptr inbounds nuw i8, ptr %this, i64 40
  %17 = load ptr, ptr %fixingTimes_, align 8, !tbaa !8
  %add.ptr.i31 = getelementptr inbounds nuw double, ptr %17, i64 %i
  %18 = load double, ptr %add.ptr.i31, align 8, !tbaa !32
  %cmp = fcmp ogt double %18, %t
  br i1 %cmp, label %cond.true, label %cond.end

cond.true:                                        ; preds = %_ZNK8QuantLib9ParameterclEd.exit30
  %sub = fsub double %18, %t
  %19 = tail call double @llvm.fmuladd.f64(double %call2.i, double %sub, double %call2.i27)
  %fneg = fneg double %call2.i9
  %mul = fmul double %sub, %fneg
  %call14 = tail call double @exp(double noundef %mul) #20, !tbaa !46
  %20 = tail call double @llvm.fmuladd.f64(double %19, double %call14, double %call2.i18)
  br label %cond.end

cond.end:                                         ; preds = %_ZNK8QuantLib9ParameterclEd.exit30, %cond.true
  %cond = phi double [ %20, %cond.true ], [ 0.000000e+00, %_ZNK8QuantLib9ParameterclEd.exit30 ]
  ret double %cond
}